; Function Attrs: mustprogress uwtable
define hidden void @_ZNK17pconstructor_decl7displayERSoPKPK14pdatatype_decl(ptr nocapture noundef nonnull readonly align 8 dereferenceable(48) %this, ptr noundef nonnull align 8 dereferenceable(8) %out, ptr nocapture noundef readonly %dts) local_unnamed_addr #3 align 2 {
entry:
  %call = tail call noundef nonnull align 8 dereferenceable(8) ptr @_ZStlsISt11char_traitsIcEERSt13basic_ostreamIcT_ES5_PKc(ptr noundef nonnull align 8 dereferenceable(8) %out, ptr noundef nonnull @.str.11)
  %m_name = getelementptr inbounds i8, ptr %this, i64 24
  %agg.tmp.sroa.0.0.copyload = load ptr, ptr %m_name, align 8
  %0 = ptrtoint ptr %agg.tmp.sroa.0.0.copyload to i64
  %and.i = and i64 %0, 7
  %cmp.i = icmp eq i64 %and.i, 0
  br i1 %cmp.i, label %if.then.i, label %if.else5.i

if.then.i:                                        ; preds = %entry
  %tobool.not.i = icmp eq ptr %agg.tmp.sroa.0.0.copyload, null
  br i1 %tobool.not.i, label %if.else.i, label %if.then2.i

if.then2.i:                                       ; preds = %if.then.i
  %call.i = tail call noundef nonnull align 8 dereferenceable(8) ptr @_ZStlsISt11char_traitsIcEERSt13basic_ostreamIcT_ES5_PKc(ptr noundef nonnull align 8 dereferenceable(8) %call, ptr noundef nonnull %agg.tmp.sroa.0.0.copyload)
  br label %_ZlsRSo6symbol.exit

if.else.i:                                        ; preds = %if.then.i
  %call4.i = tail call noundef nonnull align 8 dereferenceable(8) ptr @_ZStlsISt11char_traitsIcEERSt13basic_ostreamIcT_ES5_PKc(ptr noundef nonnull align 8 dereferenceable(8) %call, ptr noundef nonnull @.str.22)
  br label %_ZlsRSo6symbol.exit

if.else5.i:                                       ; preds = %entry
  %call6.i = tail call noundef nonnull align 8 dereferenceable(8) ptr @_ZStlsISt11char_traitsIcEERSt13basic_ostreamIcT_ES5_PKc(ptr noundef nonnull align 8 dereferenceable(8) %call, ptr noundef nonnull @.str.23)
  %shr.i = lshr i64 %0, 3
  %conv.i = trunc i64 %shr.i to i32
  %call8.i = tail call noundef nonnull align 8 dereferenceable(8) ptr @_ZNSolsEi(ptr noundef nonnull align 8 dereferenceable(8) %call6.i, i32 noundef %conv.i)
  br label %_ZlsRSo6symbol.exit

_ZlsRSo6symbol.exit:                              ; preds = %if.then2.i, %if.else.i, %if.else5.i
  %m_accessors = getelementptr inbounds i8, ptr %this, i64 40
  %1 = load ptr, ptr %m_accessors, align 8
  %cmp.i.i = icmp eq ptr %1, null
  br i1 %cmp.i.i, label %for.end, label %_ZNK6vectorIP14paccessor_declLb0EjE3endEv.exit

_ZNK6vectorIP14paccessor_declLb0EjE3endEv.exit:   ; preds = %_ZlsRSo6symbol.exit
  %arrayidx.i.i = getelementptr inbounds i8, ptr %1, i64 -4
  %2 = load i32, ptr %arrayidx.i.i, align 4
  %3 = zext i32 %2 to i64
  %add.ptr.i = getelementptr inbounds ptr, ptr %1, i64 %3
  %cmp.not7 = icmp eq i32 %2, 0
  br i1 %cmp.not7, label %for.end, label %for.body

for.body:                                         ; preds = %_ZNK6vectorIP14paccessor_declLb0EjE3endEv.exit, %for.body
  %__begin1.08 = phi ptr [ %incdec.ptr, %for.body ], [ %1, %_ZNK6vectorIP14paccessor_declLb0EjE3endEv.exit ]
  %4 = load ptr, ptr %__begin1.08, align 8
  %call5 = tail call noundef nonnull align 8 dereferenceable(8) ptr @_ZStlsISt11char_traitsIcEERSt13basic_ostreamIcT_ES5_PKc(ptr noundef nonnull align 8 dereferenceable(8) %out, ptr noundef nonnull @.str.1)
  tail call void @_ZNK14paccessor_decl7displayERSoPKPK14pdatatype_decl(ptr noundef nonnull align 8 dereferenceable(56) %4, ptr noundef nonnull align 8 dereferenceable(8) %out, ptr noundef %dts)
  %incdec.ptr = getelementptr inbounds i8, ptr %__begin1.08, i64 8
  %cmp.not = icmp eq ptr %incdec.ptr, %add.ptr.i
  br i1 %cmp.not, label %for.end, label %for.body

for.end:                                          ; preds = %for.body, %_ZlsRSo6symbol.exit, %_ZNK6vectorIP14paccessor_declLb0EjE3endEv.exit
  %call6 = tail call noundef nonnull align 8 dereferenceable(8) ptr @_ZStlsISt11char_traitsIcEERSt13basic_ostreamIcT_ES5_PKc(ptr noundef nonnull align 8 dereferenceable(8) %out, ptr noundef nonnull @.str.5)
  ret void
}